; Function Attrs: mustprogress uwtable
define void @_ZNK32pxrInternal_v0_24__pxrReserved__9GfFrustum20ComputeViewDirectionEv(ptr dead_on_unwind noalias writable sret(%"class.pxrInternal_v0_24__pxrReserved__::GfVec3d") align 8 %0, ptr noundef nonnull align 8 dereferenceable(128) %1) local_unnamed_addr #0 align 2 {
  %3 = alloca %"class.pxrInternal_v0_24__pxrReserved__::GfVec3d", align 8
  %4 = getelementptr inbounds nuw i8, ptr %1, i64 24
  store double -0.000000e+00, ptr %3, align 8, !alias.scope !22
  %5 = getelementptr inbounds i8, ptr %3, i64 8
  store double -0.000000e+00, ptr %5, align 8, !alias.scope !22
  %6 = getelementptr inbounds i8, ptr %3, i64 16
  store double -1.000000e+00, ptr %6, align 8, !alias.scope !22
  call void @_ZNK32pxrInternal_v0_24__pxrReserved__10GfRotation12TransformDirERKNS_7GfVec3dE(ptr dead_on_unwind writable sret(%"class.pxrInternal_v0_24__pxrReserved__::GfVec3d") align 8 %0, ptr noundef nonnull align 8 dereferenceable(32) %4, ptr noundef nonnull align 8 dereferenceable(24) %3)
  ret void
}